; Function Attrs: mustprogress nofree norecurse nosync nounwind memory(read, argmem: readwrite, inaccessiblemem: none) uwtable
define noundef zeroext i8 @_ZN8proxygen23StructuredHeadersBuffer24removeOptionalWhitespaceEv(ptr nocapture noundef nonnull align 8 dereferenceable(32) %this) local_unnamed_addr #4 align 2 {
entry:
  %e_.i.i = getelementptr inbounds i8, ptr %this, i64 8
  %0 = load ptr, ptr %e_.i.i, align 8
  %this.promoted = load ptr, ptr %this, align 8
  %cmp.i2 = icmp eq ptr %this.promoted, %0
  br i1 %cmp.i2, label %while.end, label %land.rhs

land.rhs:                                         ; preds = %entry, %_ZN8proxygen23StructuredHeadersBuffer13advanceCursorEv.exit
  %add.ptr.i.i13 = phi ptr [ %add.ptr.i.i, %_ZN8proxygen23StructuredHeadersBuffer13advanceCursorEv.exit ], [ %this.promoted, %entry ]
  %1 = load i8, ptr %add.ptr.i.i13, align 1
  switch i8 %1, label %while.end [
    i8 32, label %_ZN8proxygen23StructuredHeadersBuffer13advanceCursorEv.exit
    i8 9, label %_ZN8proxygen23StructuredHeadersBuffer13advanceCursorEv.exit
  ]

_ZN8proxygen23StructuredHeadersBuffer13advanceCursorEv.exit: ; preds = %land.rhs, %land.rhs
  %add.ptr.i.i = getelementptr inbounds i8, ptr %add.ptr.i.i13, i64 1
  store ptr %add.ptr.i.i, ptr %this, align 8
  %cmp.i = icmp eq ptr %add.ptr.i.i, %0
  br i1 %cmp.i, label %while.end, label %land.rhs, !llvm.loop !9

while.end:                                        ; preds = %_ZN8proxygen23StructuredHeadersBuffer13advanceCursorEv.exit, %land.rhs, %entry
  ret i8 0
}